   1               		.file	"Comms.cpp"
   2               	__SP_H__ = 0x3e
   3               	__SP_L__ = 0x3d
   4               	__SREG__ = 0x3f
   5               	__tmp_reg__ = 0
   6               	__zero_reg__ = 1
   7               		.section	.text._ZN5CommsC2Ev,"ax",@progbits
   8               	.global	_ZN5CommsC2Ev
  10               	_ZN5CommsC2Ev:
  11               	/* prologue: function */
  12               	/* frame size = 0 */
  13               	/* stack size = 0 */
  14               	.L__stack_usage = 0
  15 0000 FC01      		movw r30,r24
  16 0002 1282      		std Z+2,__zero_reg__
  17 0004 1182      		std Z+1,__zero_reg__
  18 0006 1482      		std Z+4,__zero_reg__
  19 0008 1382      		std Z+3,__zero_reg__
  20 000a 1682      		std Z+6,__zero_reg__
  21 000c 1582      		std Z+5,__zero_reg__
  22 000e E95B      		subi r30,-71
  23 0010 FF4F      		sbci r31,-1
  24 0012 1082      		st Z,__zero_reg__
  25 0014 0895      		ret
  27               	.global	_ZN5CommsC1Ev
  28               		.set	_ZN5CommsC1Ev,_ZN5CommsC2Ev
  29               		.section	.rodata.str1.1,"aMS",@progbits,1
  30               	.LC0:
  31 0000 4672 6571 		.string	"Frequency is %f\n"
  31      7565 6E63 
  31      7920 6973 
  31      2025 660A 
  31      00
  32               	.LC1:
  33 0011 4648 2053 		.string	"FH Step is %lu\n"
  33      7465 7020 
  33      6973 2025 
  33      6C75 0A00 
  34               	.LC2:
  35 0021 4368 616E 		.string	"Channel is %d\n"
  35      6E65 6C20 
  35      6973 2025 
  35      640A 00
  36               	.LC3:
  37 0030 4672 6571 		.string	"Frequency deviation is %lu\n"
  37      7565 6E63 
  37      7920 6465 
  37      7669 6174 
  37      696F 6E20 
  38               	.LC4:
  39 004c 4461 7461 		.string	"Data rate is %lu\n"
  39      2072 6174 
  39      6520 6973 
  39      2025 6C75 
  39      0A00 
  40               	.LC5:
  41 005e 4D6F 6475 		.string	"Modulation Type %d\n"
  41      6C61 7469 
  41      6F6E 2054 
  41      7970 6520 
  41      2564 0A00 
  42               	.LC6:
  43 0072 4D6F 6475 		.string	"Modulation Data Source %d\n"
  43      6C61 7469 
  43      6F6E 2044 
  43      6174 6120 
  43      536F 7572 
  44               	.LC7:
  45 008d 4461 7461 		.string	"Data Clock Configuration %d\n"
  45      2043 6C6F 
  45      636B 2043 
  45      6F6E 6669 
  45      6775 7261 
  46               	.LC8:
  47 00aa 5472 616E 		.string	"Transmission Power is %d\n"
  47      736D 6973 
  47      7369 6F6E 
  47      2050 6F77 
  47      6572 2069 
  48               		.section	.text._ZN5Comms4initEh,"ax",@progbits
  49               	.global	_ZN5Comms4initEh
  51               	_ZN5Comms4initEh:
  52 0000 0F93      		push r16
  53 0002 1F93      		push r17
  54 0004 CF93      		push r28
  55 0006 DF93      		push r29
  56               	/* prologue: function */
  57               	/* frame size = 0 */
  58               	/* stack size = 4 */
  59               	.L__stack_usage = 4
  60 0008 EC01      		movw r28,r24
  61 000a 162F      		mov r17,r22
  62 000c 1F5F      		subi r17,lo8(-(1))
  63 000e 00E0      		ldi r16,0
  64               	.L3:
  65 0010 0117      		cp r16,r17
  66 0012 00F4      		brsh .L9
  67 0014 CE01      		movw r24,r28
  68 0016 0E94 0000 		call _ZN6RFM22B4initEv
  69 001a 8111      		cpse r24,__zero_reg__
  70 001c 00C0      		rjmp .L4
  71 001e 64EF      		ldi r22,lo8(-12)
  72 0020 71E0      		ldi r23,lo8(1)
  73 0022 80E0      		ldi r24,0
  74 0024 90E0      		ldi r25,0
  75 0026 0E94 0000 		call delay
  76 002a 0F5F      		subi r16,lo8(-(1))
  77 002c 00C0      		rjmp .L3
  78               	.L9:
  79 002e 80E0      		ldi r24,0
  80 0030 00C0      		rjmp .L7
  81               	.L4:
  82 0032 0DEC      		ldi r16,lo8(-51)
  83 0034 1CEC      		ldi r17,lo8(-52)
  84 0036 2CE4      		ldi r18,lo8(76)
  85 0038 3DE3      		ldi r19,lo8(61)
  86 003a 40E0      		ldi r20,0
  87 003c 50E0      		ldi r21,0
  88 003e 69ED      		ldi r22,lo8(-39)
  89 0040 73E4      		ldi r23,lo8(67)
  90 0042 CE01      		movw r24,r28
  91 0044 0E94 0000 		call _ZN6RFM22B21set_carrier_frequencyEff
  92 0048 63E0      		ldi r22,lo8(3)
  93 004a CE01      		movw r24,r28
  94 004c 0E94 0000 		call _ZN6RFM22B19set_modulation_typeENS_15Modulation_TypeE
  95 0050 62E0      		ldi r22,lo8(2)
  96 0052 CE01      		movw r24,r28
  97 0054 0E94 0000 		call _ZN6RFM22B26set_modulation_data_sourceENS_22Modulation_Data_SourceE
  98 0058 60E0      		ldi r22,0
  99 005a CE01      		movw r24,r28
 100 005c 0E94 0000 		call _ZN6RFM22B28set_data_clock_configurationENS_24Data_Clock_ConfigurationE
 101 0060 64E1      		ldi r22,lo8(20)
 102 0062 CE01      		movw r24,r28
 103 0064 0E94 0000 		call _ZN6RFM22B22set_transmission_powerEh
 104 0068 42E1      		ldi r20,lo8(18)
 105 006a 6BE0      		ldi r22,lo8(11)
 106 006c CE01      		movw r24,r28
 107 006e 0E94 0000 		call _ZN6RFM22B17set_gpio_functionENS_4GPIOENS_13GPIO_FunctionE
 108 0072 45E1      		ldi r20,lo8(21)
 109 0074 6CE0      		ldi r22,lo8(12)
 110 0076 CE01      		movw r24,r28
 111 0078 0E94 0000 		call _ZN6RFM22B17set_gpio_functionENS_4GPIOENS_13GPIO_FunctionE
 112 007c CE01      		movw r24,r28
 113 007e 0E94 0000 		call _ZN6RFM22B21get_carrier_frequencyEv
 114 0082 9F93      		push r25
 115 0084 8F93      		push r24
 116 0086 7F93      		push r23
 117 0088 6F93      		push r22
 118 008a 80E0      		ldi r24,lo8(.LC0)
 119 008c 90E0      		ldi r25,hi8(.LC0)
 120 008e 9F93      		push r25
 121 0090 8F93      		push r24
 122 0092 0E94 0000 		call printf
 123 0096 CE01      		movw r24,r28
 124 0098 0E94 0000 		call _ZN6RFM22B31get_frequency_hopping_step_sizeEv
 125 009c 9F93      		push r25
 126 009e 8F93      		push r24
 127 00a0 7F93      		push r23
 128 00a2 6F93      		push r22
 129 00a4 80E0      		ldi r24,lo8(.LC1)
 130 00a6 90E0      		ldi r25,hi8(.LC1)
 131 00a8 9F93      		push r25
 132 00aa 8F93      		push r24
 133 00ac 0E94 0000 		call printf
 134 00b0 CE01      		movw r24,r28
 135 00b2 0E94 0000 		call _ZN6RFM22B11get_channelEv
 136 00b6 1F92      		push __zero_reg__
 137 00b8 8F93      		push r24
 138 00ba 80E0      		ldi r24,lo8(.LC2)
 139 00bc 90E0      		ldi r25,hi8(.LC2)
 140 00be 9F93      		push r25
 141 00c0 8F93      		push r24
 142 00c2 0E94 0000 		call printf
 143 00c6 CE01      		movw r24,r28
 144 00c8 0E94 0000 		call _ZN6RFM22B23get_frequency_deviationEv
 145 00cc 9F93      		push r25
 146 00ce 8F93      		push r24
 147 00d0 7F93      		push r23
 148 00d2 6F93      		push r22
 149 00d4 80E0      		ldi r24,lo8(.LC3)
 150 00d6 90E0      		ldi r25,hi8(.LC3)
 151 00d8 9F93      		push r25
 152 00da 8F93      		push r24
 153 00dc 0E94 0000 		call printf
 154 00e0 CE01      		movw r24,r28
 155 00e2 0E94 0000 		call _ZN6RFM22B13get_data_rateEv
 156 00e6 9F93      		push r25
 157 00e8 8F93      		push r24
 158 00ea 7F93      		push r23
 159 00ec 6F93      		push r22
 160 00ee 80E0      		ldi r24,lo8(.LC4)
 161 00f0 90E0      		ldi r25,hi8(.LC4)
 162 00f2 9F93      		push r25
 163 00f4 8F93      		push r24
 164 00f6 0E94 0000 		call printf
 165 00fa CE01      		movw r24,r28
 166 00fc 0E94 0000 		call _ZN6RFM22B19get_modulation_typeEv
 167 0100 1F92      		push __zero_reg__
 168 0102 8F93      		push r24
 169 0104 80E0      		ldi r24,lo8(.LC5)
 170 0106 90E0      		ldi r25,hi8(.LC5)
 171 0108 9F93      		push r25
 172 010a 8F93      		push r24
 173 010c 0E94 0000 		call printf
 174 0110 8DB7      		in r24,__SP_L__
 175 0112 9EB7      		in r25,__SP_H__
 176 0114 8096      		adiw r24,32
 177 0116 0FB6      		in __tmp_reg__,__SREG__
 178 0118 F894      		cli
 179 011a 9EBF      		out __SP_H__,r25
 180 011c 0FBE      		out __SREG__,__tmp_reg__
 181 011e 8DBF      		out __SP_L__,r24
 182 0120 CE01      		movw r24,r28
 183 0122 0E94 0000 		call _ZN6RFM22B26get_modulation_data_sourceEv
 184 0126 1F92      		push __zero_reg__
 185 0128 8F93      		push r24
 186 012a 80E0      		ldi r24,lo8(.LC6)
 187 012c 90E0      		ldi r25,hi8(.LC6)
 188 012e 9F93      		push r25
 189 0130 8F93      		push r24
 190 0132 0E94 0000 		call printf
 191 0136 CE01      		movw r24,r28
 192 0138 0E94 0000 		call _ZN6RFM22B28get_data_clock_configurationEv
 193 013c 1F92      		push __zero_reg__
 194 013e 8F93      		push r24
 195 0140 80E0      		ldi r24,lo8(.LC7)
 196 0142 90E0      		ldi r25,hi8(.LC7)
 197 0144 9F93      		push r25
 198 0146 8F93      		push r24
 199 0148 0E94 0000 		call printf
 200 014c CE01      		movw r24,r28
 201 014e 0E94 0000 		call _ZN6RFM22B22get_transmission_powerEv
 202 0152 1F92      		push __zero_reg__
 203 0154 8F93      		push r24
 204 0156 80E0      		ldi r24,lo8(.LC8)
 205 0158 90E0      		ldi r25,hi8(.LC8)
 206 015a 9F93      		push r25
 207 015c 8F93      		push r24
 208 015e 0E94 0000 		call printf
 209 0162 CE01      		movw r24,r28
 210 0164 0E94 0000 		call _ZN6RFM22B13stand_by_modeEv
 211 0168 8DB7      		in r24,__SP_L__
 212 016a 9EB7      		in r25,__SP_H__
 213 016c 0C96      		adiw r24,12
 214 016e 0FB6      		in __tmp_reg__,__SREG__
 215 0170 F894      		cli
 216 0172 9EBF      		out __SP_H__,r25
 217 0174 0FBE      		out __SREG__,__tmp_reg__
 218 0176 8DBF      		out __SP_L__,r24
 219 0178 81E0      		ldi r24,lo8(1)
 220               	.L7:
 221               	/* epilogue start */
 222 017a DF91      		pop r29
 223 017c CF91      		pop r28
 224 017e 1F91      		pop r17
 225 0180 0F91      		pop r16
 226 0182 0895      		ret
 228               		.section	.text._ZN5Comms9idle_modeEv,"ax",@progbits
 229               	.global	_ZN5Comms9idle_modeEv
 231               	_ZN5Comms9idle_modeEv:
 232               	/* prologue: function */
 233               	/* frame size = 0 */
 234               	/* stack size = 0 */
 235               	.L__stack_usage = 0
 236 0000 0C94 0000 		jmp _ZN6RFM22B9idle_modeEv
 238               		.section	.text._ZN5Comms13stand_by_modeEv,"ax",@progbits
 239               	.global	_ZN5Comms13stand_by_modeEv
 241               	_ZN5Comms13stand_by_modeEv:
 242               	/* prologue: function */
 243               	/* frame size = 0 */
 244               	/* stack size = 0 */
 245               	.L__stack_usage = 0
 246 0000 0C94 0000 		jmp _ZN6RFM22B13stand_by_modeEv
 248               		.section	.text._ZN5Comms11set_addressEj,"ax",@progbits
 249               	.global	_ZN5Comms11set_addressEj
 251               	_ZN5Comms11set_addressEj:
 252               	/* prologue: function */
 253               	/* frame size = 0 */
 254               	/* stack size = 0 */
 255               	.L__stack_usage = 0
 256 0000 FC01      		movw r30,r24
 257 0002 7283      		std Z+2,r23
 258 0004 6183      		std Z+1,r22
 259 0006 0895      		ret
 261               		.section	.text._ZN5Comms23set_destination_addressEj,"ax",@progbits
 262               	.global	_ZN5Comms23set_destination_addressEj
 264               	_ZN5Comms23set_destination_addressEj:
 265               	/* prologue: function */
 266               	/* frame size = 0 */
 267               	/* stack size = 0 */
 268               	.L__stack_usage = 0
 269 0000 FC01      		movw r30,r24
 270 0002 7483      		std Z+4,r23
 271 0004 6383      		std Z+3,r22
 272 0006 0895      		ret
 274               		.section	.text._ZN5Comms12begin_packetEN4data4TypeE,"ax",@progbits
 275               	.global	_ZN5Comms12begin_packetEN4data4TypeE
 277               	_ZN5Comms12begin_packetEN4data4TypeE:
 278               	/* prologue: function */
 279               	/* frame size = 0 */
 280               	/* stack size = 0 */
 281               	.L__stack_usage = 0
 282 0000 FC01      		movw r30,r24
 283 0002 618B      		std Z+17,r22
 284 0004 8181      		ldd r24,Z+1
 285 0006 9281      		ldd r25,Z+2
 286 0008 9487      		std Z+12,r25
 287 000a 8387      		std Z+11,r24
 288 000c 8381      		ldd r24,Z+3
 289 000e 9481      		ldd r25,Z+4
 290 0010 9687      		std Z+14,r25
 291 0012 8587      		std Z+13,r24
 292 0014 8581      		ldd r24,Z+5
 293 0016 9681      		ldd r25,Z+6
 294 0018 0196      		adiw r24,1
 295 001a 9683      		std Z+6,r25
 296 001c 8583      		std Z+5,r24
 297 001e 8787      		std Z+15,r24
 298 0020 9F77      		andi r25,lo8(127)
 299 0022 8089      		ldd r24,Z+16
 300 0024 8078      		andi r24,lo8(-128)
 301 0026 892B      		or r24,r25
 302 0028 808B      		std Z+16,r24
 303 002a 1782      		std Z+7,__zero_reg__
 304 002c 1086      		std Z+8,__zero_reg__
 305 002e 1186      		std Z+9,__zero_reg__
 306 0030 1286      		std Z+10,__zero_reg__
 307 0032 E95B      		subi r30,-71
 308 0034 FF4F      		sbci r31,-1
 309 0036 1082      		st Z,__zero_reg__
 310 0038 85E3      		ldi r24,lo8(53)
 311 003a 0895      		ret
 313               		.section	.text._ZN5Comms4packEPKvh,"ax",@progbits
 314               	.global	_ZN5Comms4packEPKvh
 316               	_ZN5Comms4packEPKvh:
 317 0000 1F93      		push r17
 318 0002 CF93      		push r28
 319 0004 DF93      		push r29
 320               	/* prologue: function */
 321               	/* frame size = 0 */
 322               	/* stack size = 3 */
 323               	.L__stack_usage = 3
 324 0006 142F      		mov r17,r20
 325 0008 EC01      		movw r28,r24
 326 000a C95B      		subi r28,-71
 327 000c DF4F      		sbci r29,-1
 328 000e E881      		ld r30,Y
 329 0010 F0E0      		ldi r31,0
 330 0012 50E0      		ldi r21,0
 331 0014 DF01      		movw r26,r30
 332 0016 A40F      		add r26,r20
 333 0018 B51F      		adc r27,r21
 334 001a D697      		sbiw r26,54
 335 001c 04F4      		brge .L17
 336 001e 7296      		adiw r30,18
 337 0020 8E0F      		add r24,r30
 338 0022 9F1F      		adc r25,r31
 339 0024 0E94 0000 		call memcpy
 340 0028 9881      		ld r25,Y
 341 002a 910F      		add r25,r17
 342 002c 9883      		st Y,r25
 343 002e 85E3      		ldi r24,lo8(53)
 344 0030 891B      		sub r24,r25
 345 0032 00C0      		rjmp .L16
 346               	.L17:
 347 0034 80E0      		ldi r24,0
 348               	.L16:
 349               	/* epilogue start */
 350 0036 DF91      		pop r29
 351 0038 CF91      		pop r28
 352 003a 1F91      		pop r17
 353 003c 0895      		ret
 355               		.section	.text._ZN5Comms15validate_packetEPhhh,"ax",@progbits
 356               	.global	_ZN5Comms15validate_packetEPhhh
 358               	_ZN5Comms15validate_packetEPhhh:
 359 0000 CF92      		push r12
 360 0002 DF92      		push r13
 361 0004 EF92      		push r14
 362 0006 FF92      		push r15
 363 0008 0F93      		push r16
 364 000a 1F93      		push r17
 365 000c CF93      		push r28
 366 000e DF93      		push r29
 367               	/* prologue: function */
 368               	/* frame size = 0 */
 369               	/* stack size = 8 */
 370               	.L__stack_usage = 8
 371 0010 8C01      		movw r16,r24
 372 0012 EB01      		movw r28,r22
 373 0014 2097      		sbiw r28,0
 374 0016 01F0      		breq .L32
 375 0018 4C30      		cpi r20,lo8(12)
 376 001a 00F0      		brlo .L32
 377 001c 642F      		mov r22,r20
 378 001e 70E0      		ldi r23,0
 379 0020 2223      		tst r18
 380 0022 01F0      		breq .L22
 381 0024 30E0      		ldi r19,0
 382 0026 255F      		subi r18,-11
 383 0028 3F4F      		sbci r19,-1
 384 002a 6217      		cp r22,r18
 385 002c 7307      		cpc r23,r19
 386 002e 01F4      		brne .L32
 387               	.L22:
 388 0030 C880      		ld r12,Y
 389 0032 D980      		ldd r13,Y+1
 390 0034 EA80      		ldd r14,Y+2
 391 0036 FB80      		ldd r15,Y+3
 392 0038 1882      		st Y,__zero_reg__
 393 003a 1982      		std Y+1,__zero_reg__
 394 003c 1A82      		std Y+2,__zero_reg__
 395 003e 1B82      		std Y+3,__zero_reg__
 396 0040 CE01      		movw r24,r28
 397 0042 0E94 0000 		call _Z5crc32PKhj
 398 0046 C616      		cp r12,r22
 399 0048 D706      		cpc r13,r23
 400 004a E806      		cpc r14,r24
 401 004c F906      		cpc r15,r25
 402 004e 01F4      		brne .L32
 403 0050 2E81      		ldd r18,Y+6
 404 0052 3F81      		ldd r19,Y+7
 405 0054 F801      		movw r30,r16
 406 0056 8181      		ldd r24,Z+1
 407 0058 9281      		ldd r25,Z+2
 408 005a 2817      		cp r18,r24
 409 005c 3907      		cpc r19,r25
 410 005e 01F0      		breq .L25
 411 0060 81E0      		ldi r24,lo8(1)
 412 0062 232B      		or r18,r19
 413 0064 01F0      		breq .L20
 414               	.L32:
 415 0066 80E0      		ldi r24,0
 416 0068 00C0      		rjmp .L20
 417               	.L25:
 418 006a 81E0      		ldi r24,lo8(1)
 419               	.L20:
 420               	/* epilogue start */
 421 006c DF91      		pop r29
 422 006e CF91      		pop r28
 423 0070 1F91      		pop r17
 424 0072 0F91      		pop r16
 425 0074 FF90      		pop r15
 426 0076 EF90      		pop r14
 427 0078 DF90      		pop r13
 428 007a CF90      		pop r12
 429 007c 0895      		ret
 431               		.section	.text._ZN5Comms11send_packetEh,"ax",@progbits
 432               	.global	_ZN5Comms11send_packetEh
 434               	_ZN5Comms11send_packetEh:
 435 0000 4F92      		push r4
 436 0002 5F92      		push r5
 437 0004 6F92      		push r6
 438 0006 7F92      		push r7
 439 0008 8F92      		push r8
 440 000a 9F92      		push r9
 441 000c AF92      		push r10
 442 000e BF92      		push r11
 443 0010 CF92      		push r12
 444 0012 DF92      		push r13
 445 0014 EF92      		push r14
 446 0016 FF92      		push r15
 447 0018 0F93      		push r16
 448 001a 1F93      		push r17
 449 001c CF93      		push r28
 450 001e DF93      		push r29
 451 0020 CDB7      		in r28,__SP_L__
 452 0022 DEB7      		in r29,__SP_H__
 453 0024 2D97      		sbiw r28,13
 454 0026 0FB6      		in __tmp_reg__,__SREG__
 455 0028 F894      		cli
 456 002a DEBF      		out __SP_H__,r29
 457 002c 0FBE      		out __SREG__,__tmp_reg__
 458 002e CDBF      		out __SP_L__,r28
 459               	/* prologue: function */
 460               	/* frame size = 13 */
 461               	/* stack size = 29 */
 462               	.L__stack_usage = 29
 463 0030 7C01      		movw r14,r24
 464 0032 962E      		mov r9,r22
 465 0034 5C01      		movw r10,r24
 466 0036 87E0      		ldi r24,7
 467 0038 A80E      		add r10,r24
 468 003a B11C      		adc r11,__zero_reg__
 469 003c 6701      		movw r12,r14
 470 003e E7E4      		ldi r30,71
 471 0040 CE0E      		add r12,r30
 472 0042 D11C      		adc r13,__zero_reg__
 473 0044 F601      		movw r30,r12
 474 0046 6081      		ld r22,Z
 475 0048 70E0      		ldi r23,0
 476 004a 655F      		subi r22,-11
 477 004c 7F4F      		sbci r23,-1
 478 004e C501      		movw r24,r10
 479 0050 0E94 0000 		call _Z5crc32PKhj
 480 0054 F701      		movw r30,r14
 481 0056 6783      		std Z+7,r22
 482 0058 7087      		std Z+8,r23
 483 005a 8187      		std Z+9,r24
 484 005c 9287      		std Z+10,r25
 485 005e 9394      		inc r9
 486 0060 812C      		mov r8,__zero_reg__
 487 0062 85E0      		ldi r24,lo8(5)
 488 0064 482E      		mov r4,r24
 489 0066 512C      		mov r5,__zero_reg__
 490 0068 612C      		mov r6,__zero_reg__
 491 006a 712C      		mov r7,__zero_reg__
 492               	.L34:
 493 006c 8914      		cp r8,r9
 494 006e 00F0      		brlo .+2
 495 0070 00C0      		rjmp .L45
 496 0072 F601      		movw r30,r12
 497 0074 4081      		ld r20,Z
 498 0076 455F      		subi r20,lo8(-(11))
 499 0078 B501      		movw r22,r10
 500 007a C701      		movw r24,r14
 501 007c 0E94 0000 		call _ZN6RFM22B4sendEPhh
 502 0080 04E6      		ldi r16,lo8(100)
 503 0082 10E0      		ldi r17,0
 504 0084 20E0      		ldi r18,0
 505 0086 30E0      		ldi r19,0
 506 0088 4DE0      		ldi r20,lo8(13)
 507 008a BE01      		movw r22,r28
 508 008c 6F5F      		subi r22,-1
 509 008e 7F4F      		sbci r23,-1
 510 0090 C701      		movw r24,r14
 511 0092 0E94 0000 		call _ZN6RFM22B7receiveEPhhm
 512 0096 1816      		cp __zero_reg__,r24
 513 0098 04F4      		brge .L38
 514 009a 22E0      		ldi r18,lo8(2)
 515 009c 482F      		mov r20,r24
 516 009e BE01      		movw r22,r28
 517 00a0 6F5F      		subi r22,-1
 518 00a2 7F4F      		sbci r23,-1
 519 00a4 C701      		movw r24,r14
 520 00a6 0E94 0000 		call _ZN5Comms15validate_packetEPhhh
 521 00aa 8823      		tst r24
 522 00ac 01F0      		breq .L38
 523 00ae 4C85      		ldd r20,Y+12
 524 00b0 942F      		mov r25,r20
 525 00b2 9695      		lsr r25
 526 00b4 8D85      		ldd r24,Y+13
 527 00b6 582F      		mov r21,r24
 528 00b8 5795      		ror r21
 529 00ba 5527      		clr r21
 530 00bc 5795      		ror r21
 531 00be 252F      		mov r18,r21
 532 00c0 292B      		or r18,r25
 533 00c2 382F      		mov r19,r24
 534 00c4 3695      		lsr r19
 535 00c6 F701      		movw r30,r14
 536 00c8 8785      		ldd r24,Z+15
 537 00ca 5089      		ldd r21,Z+16
 538 00cc 952F      		mov r25,r21
 539 00ce 9F77      		andi r25,lo8(127)
 540 00d0 2817      		cp r18,r24
 541 00d2 3907      		cpc r19,r25
 542 00d4 01F4      		brne .L38
 543 00d6 40FF      		sbrs r20,0
 544 00d8 00C0      		rjmp .L38
 545 00da F601      		movw r30,r12
 546 00dc 1082      		st Z,__zero_reg__
 547 00de 81E0      		ldi r24,lo8(1)
 548 00e0 00C0      		rjmp .L36
 549               	.L38:
 550 00e2 0E94 0000 		call random
 551 00e6 A301      		movw r20,r6
 552 00e8 9201      		movw r18,r4
 553 00ea 0E94 0000 		call __divmodsi4
 554 00ee 9B01      		movw r18,r22
 555 00f0 AC01      		movw r20,r24
 556 00f2 2F5F      		subi r18,-1
 557 00f4 3F4F      		sbci r19,-1
 558 00f6 4F4F      		sbci r20,-1
 559 00f8 5F4F      		sbci r21,-1
 560 00fa A4E6      		ldi r26,lo8(100)
 561 00fc B0E0      		ldi r27,0
 562 00fe 0E94 0000 		call __muluhisi3
 563 0102 0E94 0000 		call delay
 564 0106 8394      		inc r8
 565 0108 00C0      		rjmp .L34
 566               	.L45:
 567 010a 80E0      		ldi r24,0
 568               	.L36:
 569               	/* epilogue start */
 570 010c 2D96      		adiw r28,13
 571 010e 0FB6      		in __tmp_reg__,__SREG__
 572 0110 F894      		cli
 573 0112 DEBF      		out __SP_H__,r29
 574 0114 0FBE      		out __SREG__,__tmp_reg__
 575 0116 CDBF      		out __SP_L__,r28
 576 0118 DF91      		pop r29
 577 011a CF91      		pop r28
 578 011c 1F91      		pop r17
 579 011e 0F91      		pop r16
 580 0120 FF90      		pop r15
 581 0122 EF90      		pop r14
 582 0124 DF90      		pop r13
 583 0126 CF90      		pop r12
 584 0128 BF90      		pop r11
 585 012a AF90      		pop r10
 586 012c 9F90      		pop r9
 587 012e 8F90      		pop r8
 588 0130 7F90      		pop r7
 589 0132 6F90      		pop r6
 590 0134 5F90      		pop r5
 591 0136 4F90      		pop r4
 592 0138 0895      		ret
 594               		.section	.text._ZN5Comms13send_responseERKNS_6HeaderE,"ax",@progbits
 595               	.global	_ZN5Comms13send_responseERKNS_6HeaderE
 597               	_ZN5Comms13send_responseERKNS_6HeaderE:
 598 0000 FF92      		push r15
 599 0002 0F93      		push r16
 600 0004 1F93      		push r17
 601 0006 CF93      		push r28
 602 0008 DF93      		push r29
 603 000a CDB7      		in r28,__SP_L__
 604 000c DEB7      		in r29,__SP_H__
 605 000e 2D97      		sbiw r28,13
 606 0010 0FB6      		in __tmp_reg__,__SREG__
 607 0012 F894      		cli
 608 0014 DEBF      		out __SP_H__,r29
 609 0016 0FBE      		out __SREG__,__tmp_reg__
 610 0018 CDBF      		out __SP_L__,r28
 611               	/* prologue: function */
 612               	/* frame size = 13 */
 613               	/* stack size = 18 */
 614               	.L__stack_usage = 18
 615 001a 8C01      		movw r16,r24
 616 001c FB01      		movw r30,r22
 617 001e DC01      		movw r26,r24
 618 0020 1196      		adiw r26,1
 619 0022 8D91      		ld r24,X+
 620 0024 9C91      		ld r25,X
 621 0026 1297      		sbiw r26,1+1
 622 0028 9E83      		std Y+6,r25
 623 002a 8D83      		std Y+5,r24
 624 002c 8481      		ldd r24,Z+4
 625 002e 9581      		ldd r25,Z+5
 626 0030 9887      		std Y+8,r25
 627 0032 8F83      		std Y+7,r24
 628 0034 1B86      		std Y+11,__zero_reg__
 629 0036 1596      		adiw r26,5
 630 0038 2D91      		ld r18,X+
 631 003a 3C91      		ld r19,X
 632 003c 1697      		sbiw r26,5+1
 633 003e 2F5F      		subi r18,-1
 634 0040 3F4F      		sbci r19,-1
 635 0042 1696      		adiw r26,5+1
 636 0044 3C93      		st X,r19
 637 0046 2E93      		st -X,r18
 638 0048 1597      		sbiw r26,5
 639 004a 2987      		std Y+9,r18
 640 004c 932F      		mov r25,r19
 641 004e 9F77      		andi r25,lo8(127)
 642 0050 8A85      		ldd r24,Y+10
 643 0052 8078      		andi r24,lo8(-128)
 644 0054 892B      		or r24,r25
 645 0056 8A87      		std Y+10,r24
 646 0058 1982      		std Y+1,__zero_reg__
 647 005a 1A82      		std Y+2,__zero_reg__
 648 005c 1B82      		std Y+3,__zero_reg__
 649 005e 1C82      		std Y+4,__zero_reg__
 650 0060 8085      		ldd r24,Z+8
 651 0062 9185      		ldd r25,Z+9
 652 0064 282F      		mov r18,r24
 653 0066 220F      		lsl r18
 654 0068 2160      		ori r18,lo8(1)
 655 006a 2C87      		std Y+12,r18
 656 006c 990F      		lsl r25
 657 006e 881F      		rol r24
 658 0070 8827      		clr r24
 659 0072 881F      		rol r24
 660 0074 892B      		or r24,r25
 661 0076 8D87      		std Y+13,r24
 662 0078 6DE0      		ldi r22,lo8(13)
 663 007a 70E0      		ldi r23,0
 664 007c CE01      		movw r24,r28
 665 007e 0196      		adiw r24,1
 666 0080 0E94 0000 		call _Z5crc32PKhj
 667 0084 6983      		std Y+1,r22
 668 0086 7A83      		std Y+2,r23
 669 0088 8B83      		std Y+3,r24
 670 008a 9C83      		std Y+4,r25
 671 008c 93E0      		ldi r25,lo8(3)
 672 008e F92E      		mov r15,r25
 673               	.L48:
 674 0090 4DE0      		ldi r20,lo8(13)
 675 0092 BE01      		movw r22,r28
 676 0094 6F5F      		subi r22,-1
 677 0096 7F4F      		sbci r23,-1
 678 0098 C801      		movw r24,r16
 679 009a 0E94 0000 		call _ZN6RFM22B4sendEPhh
 680 009e 6AE0      		ldi r22,lo8(10)
 681 00a0 70E0      		ldi r23,0
 682 00a2 80E0      		ldi r24,0
 683 00a4 90E0      		ldi r25,0
 684 00a6 0E94 0000 		call delay
 685 00aa FA94      		dec r15
 686 00ac 01F4      		brne .L48
 687               	/* epilogue start */
 688 00ae 2D96      		adiw r28,13
 689 00b0 0FB6      		in __tmp_reg__,__SREG__
 690 00b2 F894      		cli
 691 00b4 DEBF      		out __SP_H__,r29
 692 00b6 0FBE      		out __SREG__,__tmp_reg__
 693 00b8 CDBF      		out __SP_L__,r28
 694 00ba DF91      		pop r29
 695 00bc CF91      		pop r28
 696 00be 1F91      		pop r17
 697 00c0 0F91      		pop r16
 698 00c2 FF90      		pop r15
 699 00c4 0895      		ret
 701               		.section	.text._ZN5Comms14receive_packetEm,"ax",@progbits
 702               	.global	_ZN5Comms14receive_packetEm
 704               	_ZN5Comms14receive_packetEm:
 705 0000 4F92      		push r4
 706 0002 5F92      		push r5
 707 0004 6F92      		push r6
 708 0006 7F92      		push r7
 709 0008 AF92      		push r10
 710 000a BF92      		push r11
 711 000c CF92      		push r12
 712 000e DF92      		push r13
 713 0010 EF92      		push r14
 714 0012 FF92      		push r15
 715 0014 0F93      		push r16
 716 0016 1F93      		push r17
 717 0018 CF93      		push r28
 718 001a DF93      		push r29
 719               	/* prologue: function */
 720               	/* frame size = 0 */
 721               	/* stack size = 14 */
 722               	.L__stack_usage = 14
 723 001c EC01      		movw r28,r24
 724 001e 6A01      		movw r12,r20
 725 0020 7B01      		movw r14,r22
 726 0022 0E94 0000 		call millis
 727 0026 2B01      		movw r4,r22
 728 0028 3C01      		movw r6,r24
 729 002a 60E0      		ldi r22,0
 730 002c 70E0      		ldi r23,0
 731 002e CB01      		movw r24,r22
 732 0030 5E01      		movw r10,r28
 733 0032 27E0      		ldi r18,7
 734 0034 A20E      		add r10,r18
 735 0036 B11C      		adc r11,__zero_reg__
 736               	.L52:
 737 0038 9701      		movw r18,r14
 738 003a 8601      		movw r16,r12
 739 003c 061B      		sub r16,r22
 740 003e 170B      		sbc r17,r23
 741 0040 280B      		sbc r18,r24
 742 0042 390B      		sbc r19,r25
 743 0044 40E4      		ldi r20,lo8(64)
 744 0046 B501      		movw r22,r10
 745 0048 CE01      		movw r24,r28
 746 004a 0E94 0000 		call _ZN6RFM22B7receiveEPhhm
 747 004e 182F      		mov r17,r24
 748 0050 1816      		cp __zero_reg__,r24
 749 0052 04F4      		brge .L50
 750 0054 8C30      		cpi r24,lo8(12)
 751 0056 00F0      		brlo .L50
 752 0058 20E0      		ldi r18,0
 753 005a 482F      		mov r20,r24
 754 005c B501      		movw r22,r10
 755 005e CE01      		movw r24,r28
 756 0060 0E94 0000 		call _ZN5Comms15validate_packetEPhhh
 757 0064 8823      		tst r24
 758 0066 01F0      		breq .L50
 759 0068 8989      		ldd r24,Y+17
 760 006a 8823      		tst r24
 761 006c 01F0      		breq .L50
 762 006e B501      		movw r22,r10
 763 0070 CE01      		movw r24,r28
 764 0072 0E94 0000 		call _ZN5Comms13send_responseERKNS_6HeaderE
 765 0076 85EF      		ldi r24,lo8(-11)
 766 0078 810F      		add r24,r17
 767 007a 00C0      		rjmp .L51
 768               	.L50:
 769 007c 0E94 0000 		call millis
 770 0080 6419      		sub r22,r4
 771 0082 7509      		sbc r23,r5
 772 0084 8609      		sbc r24,r6
 773 0086 9709      		sbc r25,r7
 774 0088 6C15      		cp r22,r12
 775 008a 7D05      		cpc r23,r13
 776 008c 8E05      		cpc r24,r14
 777 008e 9F05      		cpc r25,r15
 778 0090 00F0      		brlo .L52
 779 0092 80E0      		ldi r24,0
 780               	.L51:
 781               	/* epilogue start */
 782 0094 DF91      		pop r29
 783 0096 CF91      		pop r28
 784 0098 1F91      		pop r17
 785 009a 0F91      		pop r16
 786 009c FF90      		pop r15
 787 009e EF90      		pop r14
 788 00a0 DF90      		pop r13
 789 00a2 CF90      		pop r12
 790 00a4 BF90      		pop r11
 791 00a6 AF90      		pop r10
 792 00a8 7F90      		pop r7
 793 00aa 6F90      		pop r6
 794 00ac 5F90      		pop r5
 795 00ae 4F90      		pop r4
 796 00b0 0895      		ret
 798               		.section	.text._ZNK5Comms15get_packet_typeEv,"ax",@progbits
 799               	.global	_ZNK5Comms15get_packet_typeEv
 801               	_ZNK5Comms15get_packet_typeEv:
 802               	/* prologue: function */
 803               	/* frame size = 0 */
 804               	/* stack size = 0 */
 805               	.L__stack_usage = 0
 806 0000 FC01      		movw r30,r24
 807 0002 8189      		ldd r24,Z+17
 808 0004 0895      		ret
 810               		.section	.text._ZNK5Comms18get_packet_payloadEv,"ax",@progbits
 811               	.global	_ZNK5Comms18get_packet_payloadEv
 813               	_ZNK5Comms18get_packet_payloadEv:
 814               	/* prologue: function */
 815               	/* frame size = 0 */
 816               	/* stack size = 0 */
 817               	.L__stack_usage = 0
 818 0000 4296      		adiw r24,18
 819 0002 0895      		ret
 821               		.section	.text._ZNK5Comms25get_packet_source_addressEv,"ax",@progbits
 822               	.global	_ZNK5Comms25get_packet_source_addressEv
 824               	_ZNK5Comms25get_packet_source_addressEv:
 825               	/* prologue: function */
 826               	/* frame size = 0 */
 827               	/* stack size = 0 */
 828               	.L__stack_usage = 0
 829 0000 FC01      		movw r30,r24
 830 0002 8385      		ldd r24,Z+11
 831 0004 9485      		ldd r25,Z+12
 832 0006 0895      		ret
 834               		.ident	"GCC: (GNU) 4.8.1"
 835               	.global __do_copy_data
DEFINED SYMBOLS
                            *ABS*:0000000000000000 Comms.cpp
     /tmp/cczadAjE.s:2      *ABS*:000000000000003e __SP_H__
     /tmp/cczadAjE.s:3      *ABS*:000000000000003d __SP_L__
     /tmp/cczadAjE.s:4      *ABS*:000000000000003f __SREG__
     /tmp/cczadAjE.s:5      *ABS*:0000000000000000 __tmp_reg__
     /tmp/cczadAjE.s:6      *ABS*:0000000000000001 __zero_reg__
     /tmp/cczadAjE.s:10     .text._ZN5CommsC2Ev:0000000000000000 _ZN5CommsC2Ev
     /tmp/cczadAjE.s:10     .text._ZN5CommsC2Ev:0000000000000000 _ZN5CommsC1Ev
     /tmp/cczadAjE.s:51     .text._ZN5Comms4initEh:0000000000000000 _ZN5Comms4initEh
     /tmp/cczadAjE.s:231    .text._ZN5Comms9idle_modeEv:0000000000000000 _ZN5Comms9idle_modeEv
     /tmp/cczadAjE.s:241    .text._ZN5Comms13stand_by_modeEv:0000000000000000 _ZN5Comms13stand_by_modeEv
     /tmp/cczadAjE.s:251    .text._ZN5Comms11set_addressEj:0000000000000000 _ZN5Comms11set_addressEj
     /tmp/cczadAjE.s:264    .text._ZN5Comms23set_destination_addressEj:0000000000000000 _ZN5Comms23set_destination_addressEj
     /tmp/cczadAjE.s:277    .text._ZN5Comms12begin_packetEN4data4TypeE:0000000000000000 _ZN5Comms12begin_packetEN4data4TypeE
     /tmp/cczadAjE.s:316    .text._ZN5Comms4packEPKvh:0000000000000000 _ZN5Comms4packEPKvh
     /tmp/cczadAjE.s:358    .text._ZN5Comms15validate_packetEPhhh:0000000000000000 _ZN5Comms15validate_packetEPhhh
     /tmp/cczadAjE.s:434    .text._ZN5Comms11send_packetEh:0000000000000000 _ZN5Comms11send_packetEh
     /tmp/cczadAjE.s:597    .text._ZN5Comms13send_responseERKNS_6HeaderE:0000000000000000 _ZN5Comms13send_responseERKNS_6HeaderE
     /tmp/cczadAjE.s:704    .text._ZN5Comms14receive_packetEm:0000000000000000 _ZN5Comms14receive_packetEm
     /tmp/cczadAjE.s:801    .text._ZNK5Comms15get_packet_typeEv:0000000000000000 _ZNK5Comms15get_packet_typeEv
     /tmp/cczadAjE.s:813    .text._ZNK5Comms18get_packet_payloadEv:0000000000000000 _ZNK5Comms18get_packet_payloadEv
     /tmp/cczadAjE.s:824    .text._ZNK5Comms25get_packet_source_addressEv:0000000000000000 _ZNK5Comms25get_packet_source_addressEv

UNDEFINED SYMBOLS
_ZN6RFM22B4initEv
delay
_ZN6RFM22B21set_carrier_frequencyEff
_ZN6RFM22B19set_modulation_typeENS_15Modulation_TypeE
_ZN6RFM22B26set_modulation_data_sourceENS_22Modulation_Data_SourceE
_ZN6RFM22B28set_data_clock_configurationENS_24Data_Clock_ConfigurationE
_ZN6RFM22B22set_transmission_powerEh
_ZN6RFM22B17set_gpio_functionENS_4GPIOENS_13GPIO_FunctionE
_ZN6RFM22B21get_carrier_frequencyEv
printf
_ZN6RFM22B31get_frequency_hopping_step_sizeEv
_ZN6RFM22B11get_channelEv
_ZN6RFM22B23get_frequency_deviationEv
_ZN6RFM22B13get_data_rateEv
_ZN6RFM22B19get_modulation_typeEv
_ZN6RFM22B26get_modulation_data_sourceEv
_ZN6RFM22B28get_data_clock_configurationEv
_ZN6RFM22B22get_transmission_powerEv
_ZN6RFM22B13stand_by_modeEv
_ZN6RFM22B9idle_modeEv
memcpy
_Z5crc32PKhj
_ZN6RFM22B4sendEPhh
_ZN6RFM22B7receiveEPhhm
random
__divmodsi4
__muluhisi3
millis
__do_copy_data
